; Function Attrs: nounwind uwtable
define internal void @xdot_bezier(ptr noundef readonly captures(none) %0, ptr noundef %1, i64 noundef %2, i32 noundef %3) #0 {
  tail call fastcc void @xdot_style(ptr noundef %0)
  %5 = getelementptr i8, ptr %0, i64 32
  %.val = load ptr, ptr %5, align 8, !tbaa !3
  %6 = getelementptr inbounds nuw i8, ptr %.val, i64 32
  %7 = getelementptr i8, ptr %.val, i64 24
  %.val.val.i = load i32, ptr %7, align 8, !tbaa !30
  %8 = zext i32 %.val.val.i to i64
  %9 = getelementptr inbounds nuw [12 x ptr], ptr @xbufs, i64 0, i64 %8
  %10 = load ptr, ptr %9, align 8, !tbaa !36
  %11 = getelementptr inbounds nuw i8, ptr %.val, i64 35
  %12 = load i8, ptr %11, align 1, !tbaa !37
  %13 = icmp eq i8 %12, -1
  br i1 %13, label %14, label %23

14:                                               ; preds = %4
  %15 = load i8, ptr %6, align 1, !tbaa !37
  %16 = zext i8 %15 to i32
  %17 = getelementptr inbounds nuw i8, ptr %.val, i64 33
  %18 = load i8, ptr %17, align 1, !tbaa !37
  %19 = zext i8 %18 to i32
  %20 = getelementptr inbounds nuw i8, ptr %.val, i64 34
  %21 = load i8, ptr %20, align 1, !tbaa !37
  %22 = zext i8 %21 to i32
  tail call void (ptr, ptr, ...) @agxbprint(ptr noundef %10, ptr noundef nonnull @.str.35, ptr noundef nonnull @.str.34, i64 noundef 7, i32 noundef %16, i32 noundef %19, i32 noundef %22)
  br label %xdot_pencolor.exit

23:                                               ; preds = %4
  %24 = zext i8 %12 to i32
  %25 = load i8, ptr %6, align 1, !tbaa !37
  %26 = zext i8 %25 to i32
  %27 = getelementptr inbounds nuw i8, ptr %.val, i64 33
  %28 = load i8, ptr %27, align 1, !tbaa !37
  %29 = zext i8 %28 to i32
  %30 = getelementptr inbounds nuw i8, ptr %.val, i64 34
  %31 = load i8, ptr %30, align 1, !tbaa !37
  %32 = zext i8 %31 to i32
  tail call void (ptr, ptr, ...) @agxbprint(ptr noundef %10, ptr noundef nonnull @.str.36, ptr noundef nonnull @.str.34, i64 noundef 9, i32 noundef %26, i32 noundef %29, i32 noundef %32, i32 noundef %24)
  br label %xdot_pencolor.exit

xdot_pencolor.exit:                               ; preds = %14, %23
  %.not = icmp eq i32 %3, 0
  br i1 %.not, label %77, label %33

33:                                               ; preds = %xdot_pencolor.exit
  %34 = and i32 %3, -2
  %or.cond = icmp eq i32 %34, 2
  br i1 %or.cond, label %35, label %36

35:                                               ; preds = %33
  tail call fastcc void @xdot_gradient_fillcolor(ptr noundef nonnull %0, i32 noundef %3, ptr noundef %1, i64 noundef %2)
  br label %xdot_fillcolor.exit

36:                                               ; preds = %33
  %.val18 = load ptr, ptr %5, align 8, !tbaa !3
  %37 = getelementptr inbounds nuw i8, ptr %.val18, i64 72
  %38 = getelementptr i8, ptr %.val18, i64 24
  %.val.val.i19 = load i32, ptr %38, align 8, !tbaa !30
  %39 = zext i32 %.val.val.i19 to i64
  %40 = getelementptr inbounds nuw [12 x ptr], ptr @xbufs, i64 0, i64 %39
  %41 = load ptr, ptr %40, align 8, !tbaa !36
  %42 = getelementptr inbounds nuw i8, ptr %.val18, i64 75
  %43 = load i8, ptr %42, align 1, !tbaa !37
  %44 = icmp eq i8 %43, -1
  br i1 %44, label %45, label %54

45:                                               ; preds = %36
  %46 = load i8, ptr %37, align 1, !tbaa !37
  %47 = zext i8 %46 to i32
  %48 = getelementptr inbounds nuw i8, ptr %.val18, i64 73
  %49 = load i8, ptr %48, align 1, !tbaa !37
  %50 = zext i8 %49 to i32
  %51 = getelementptr inbounds nuw i8, ptr %.val18, i64 74
  %52 = load i8, ptr %51, align 1, !tbaa !37
  %53 = zext i8 %52 to i32
  tail call void (ptr, ptr, ...) @agxbprint(ptr noundef %41, ptr noundef nonnull @.str.35, ptr noundef nonnull @.str.48, i64 noundef 7, i32 noundef %47, i32 noundef %50, i32 noundef %53)
  br label %xdot_fillcolor.exit

54:                                               ; preds = %36
  %55 = zext i8 %43 to i32
  %56 = load i8, ptr %37, align 1, !tbaa !37
  %57 = zext i8 %56 to i32
  %58 = getelementptr inbounds nuw i8, ptr %.val18, i64 73
  %59 = load i8, ptr %58, align 1, !tbaa !37
  %60 = zext i8 %59 to i32
  %61 = getelementptr inbounds nuw i8, ptr %.val18, i64 74
  %62 = load i8, ptr %61, align 1, !tbaa !37
  %63 = zext i8 %62 to i32
  tail call void (ptr, ptr, ...) @agxbprint(ptr noundef %41, ptr noundef nonnull @.str.36, ptr noundef nonnull @.str.48, i64 noundef 9, i32 noundef %57, i32 noundef %60, i32 noundef %63, i32 noundef %55)
  br label %xdot_fillcolor.exit

xdot_fillcolor.exit:                              ; preds = %54, %45, %35
  %.val16 = load ptr, ptr %5, align 8, !tbaa !3
  %64 = getelementptr i8, ptr %.val16, i64 24
  %.val16.val = load i32, ptr %64, align 8, !tbaa !30
  %65 = zext i32 %.val16.val to i64
  %66 = getelementptr inbounds nuw [12 x ptr], ptr @xbufs, i64 0, i64 %65
  %67 = load ptr, ptr %66, align 8, !tbaa !36
  tail call void (ptr, ptr, ...) @agxbprint(ptr noundef %67, ptr noundef nonnull @.str.50, i32 noundef 98, i64 noundef %2)
  %.not.i = icmp eq i64 %2, 0
  br i1 %.not.i, label %xdot_points.exit, label %.lr.ph.i

.lr.ph.i:                                         ; preds = %xdot_fillcolor.exit, %.lr.ph.i
  %.01.i = phi i64 [ %76, %.lr.ph.i ], [ 0, %xdot_fillcolor.exit ]
  %68 = getelementptr inbounds nuw %struct.pointf_s, ptr %1, i64 %.01.i
  %69 = load double, ptr %68, align 8
  %70 = getelementptr inbounds nuw i8, ptr %68, i64 8
  %71 = load double, ptr %70, align 8
  tail call fastcc void @xdot_fmt_num(ptr noundef %67, double noundef %69)
  %72 = load ptr, ptr @xd, align 8, !tbaa !36
  %73 = getelementptr inbounds nuw i8, ptr %72, i64 96
  %74 = load double, ptr %73, align 8, !tbaa !38
  %75 = tail call double @yDir(double noundef %71, double noundef %74) #18
  tail call fastcc void @xdot_fmt_num(ptr noundef %67, double noundef %75)
  %76 = add nuw i64 %.01.i, 1
  %exitcond.not.i = icmp eq i64 %76, %2
  br i1 %exitcond.not.i, label %xdot_points.exit, label %.lr.ph.i, !llvm.loop !119

77:                                               ; preds = %xdot_pencolor.exit
  %.val17 = load ptr, ptr %5, align 8, !tbaa !3
  %78 = getelementptr i8, ptr %.val17, i64 24
  %.val17.val = load i32, ptr %78, align 8, !tbaa !30
  %79 = zext i32 %.val17.val to i64
  %80 = getelementptr inbounds nuw [12 x ptr], ptr @xbufs, i64 0, i64 %79
  %81 = load ptr, ptr %80, align 8, !tbaa !36
  tail call void (ptr, ptr, ...) @agxbprint(ptr noundef %81, ptr noundef nonnull @.str.50, i32 noundef 66, i64 noundef %2)
  %.not.i20 = icmp eq i64 %2, 0
  br i1 %.not.i20, label %xdot_points.exit, label %.lr.ph.i21

.lr.ph.i21:                                       ; preds = %77, %.lr.ph.i21
  %.01.i22 = phi i64 [ %90, %.lr.ph.i21 ], [ 0, %77 ]
  %82 = getelementptr inbounds nuw %struct.pointf_s, ptr %1, i64 %.01.i22
  %83 = load double, ptr %82, align 8
  %84 = getelementptr inbounds nuw i8, ptr %82, i64 8
  %85 = load double, ptr %84, align 8
  tail call fastcc void @xdot_fmt_num(ptr noundef %81, double noundef %83)
  %86 = load ptr, ptr @xd, align 8, !tbaa !36
  %87 = getelementptr inbounds nuw i8, ptr %86, i64 96
  %88 = load double, ptr %87, align 8, !tbaa !38
  %89 = tail call double @yDir(double noundef %85, double noundef %88) #18
  tail call fastcc void @xdot_fmt_num(ptr noundef %81, double noundef %89)
  %90 = add nuw i64 %.01.i22, 1
  %exitcond.not.i23 = icmp eq i64 %90, %2
  br i1 %exitcond.not.i23, label %xdot_points.exit, label %.lr.ph.i21, !llvm.loop !119

xdot_points.exit:                                 ; preds = %.lr.ph.i, %.lr.ph.i21, %77, %xdot_fillcolor.exit
  ret void
}